target datalayout = "e-m:e-p270:32:32-p271:32:32-p272:64:64-i64:64-i128:128-f80:128-n8:16:32:64-S128"
target triple = "x86_64-pc-linux-gnu"

%"class.net::(anonymous namespace)::ForceHolAckListener" = type <{ %"class.net::QuicAckListenerInterface.base", [4 x i8], %class.scoped_refptr.175, i32, [4 x i8] }>
%"class.net::QuicAckListenerInterface.base" = type <{ ptr, %"class.base::RefCounted" }>
%"class.base::RefCounted" = type { %"class.base::subtle::RefCountedBase" }
%"class.base::subtle::RefCountedBase" = type { i32 }
%class.scoped_refptr.175 = type { ptr }

; Function Attrs: mustprogress nounwind uwtable
define linkonce_odr noundef ptr @_ZNK13scoped_refptrIN3net24QuicAckListenerInterfaceEEptEv(ptr noundef nonnull align 8 dereferenceable(8) %0) #0 comdat align 2 {
  %2 = alloca ptr, align 8
  store ptr %0, ptr %2, align 8, !tbaa !496
  %3 = load ptr, ptr %2, align 8
  %4 = getelementptr inbounds nuw %class.scoped_refptr.175, ptr %3, i32 0, i32 0
  %5 = load ptr, ptr %4, align 8, !tbaa !498
  ret ptr %5
}

; Function Attrs: mustprogress uwtable
define internal void @_ZN3net12_GLOBAL__N_119ForceHolAckListener21OnPacketRetransmittedEi(ptr noundef nonnull align 8 dereferenceable(28) %0, i32 noundef %1) unnamed_addr #2 align 2 {
  %3 = alloca ptr, align 8
  %4 = alloca i32, align 4
  store ptr %0, ptr %3, align 8, !tbaa !289
  store i32 %1, ptr %4, align 4, !tbaa !202
  %5 = load ptr, ptr %3, align 8
  %6 = getelementptr inbounds nuw %"class.net::(anonymous namespace)::ForceHolAckListener", ptr %5, i32 0, i32 2
  %7 = call noundef ptr @_ZNK13scoped_refptrIN3net24QuicAckListenerInterfaceEEptEv(ptr noundef nonnull align 8 dereferenceable(8) %6)
  %8 = load i32, ptr %4, align 4, !tbaa !202
  %9 = load ptr, ptr %7, align 8, !tbaa !8
  %10 = getelementptr inbounds ptr, ptr %9, i64 1
  %11 = load ptr, ptr %10, align 8
  call void %11(ptr noundef nonnull align 8 dereferenceable(12) %7, i32 noundef %8)
  ret void
}