; Function Attrs: mustprogress uwtable
define internal void @_ZN3net12_GLOBAL__N_119ForceHolAckListener21OnPacketRetransmittedEi(ptr noundef nonnull readonly align 8 captures(none) dereferenceable(28) %0, i32 noundef %1) unnamed_addr #4 align 2 {
  %3 = getelementptr inbounds nuw i8, ptr %0, i64 16
  %4 = load ptr, ptr %3, align 8, !tbaa !359
  %5 = load ptr, ptr %4, align 8, !tbaa !3
  %6 = getelementptr inbounds nuw i8, ptr %5, i64 8
  %7 = load ptr, ptr %6, align 8
  tail call void %7(ptr noundef nonnull align 8 dereferenceable(12) %4, i32 noundef %1)
  ret void
}